; ModuleID = '37/917.c'
source_filename = "37/917.c"
target datalayout = "e-m:e-p270:32:32-p271:32:32-p272:64:64-i64:64-f80:128-n8:16:32:64-S128"
target triple = "x86_64-pc-linux-gnu"

@.str = private unnamed_addr constant [3 x i8] c"%d\00", align 1
@.str.1 = private unnamed_addr constant [4 x i8] c"%c\0A\00", align 1
@.str.2 = private unnamed_addr constant [4 x i8] c"no\0A\00", align 1

; Function Attrs: noinline nounwind uwtable
define dso_local i32 @main() #0 {
  %1 = alloca i32, align 4
  %2 = alloca [100000 x i8], align 16
  %3 = alloca i8*, align 8
  %4 = alloca i32, align 4
  %5 = alloca i32, align 4
  %6 = alloca [256 x i32], align 16
  store i32 0, i32* %1, align 4
  %7 = call i32 (i8*, ...) @__isoc99_scanf(i8* getelementptr inbounds ([3 x i8], [3 x i8]* @.str, i64 0, i64 0), i32* %4)
  %8 = getelementptr inbounds [100000 x i8], [100000 x i8]* %2, i64 0, i64 0
  %9 = call i32 (i8*, ...) bitcast (i32 (...)* @gets to i32 (i8*, ...)*)(i8* %8)
  store i32 0, i32* %5, align 4
  br label %10

10:                                               ; preds = %63, %0
  %11 = load i32, i32* %5, align 4
  %12 = load i32, i32* %4, align 4
  %13 = icmp slt i32 %11, %12
  br i1 %13, label %14, label %66

14:                                               ; preds = %10
  %15 = bitcast [256 x i32]* %6 to i8*
  call void @llvm.memset.p0i8.i64(i8* align 16 %15, i8 0, i64 1024, i1 false)
  %16 = getelementptr inbounds [100000 x i8], [100000 x i8]* %2, i64 0, i64 0
  %17 = call i32 (i8*, ...) bitcast (i32 (...)* @gets to i32 (i8*, ...)*)(i8* %16)
  %18 = getelementptr inbounds [100000 x i8], [100000 x i8]* %2, i64 0, i64 0
  store i8* %18, i8** %3, align 8
  br label %19

19:                                               ; preds = %24, %14
  %20 = load i8*, i8** %3, align 8
  %21 = load i8, i8* %20, align 1
  %22 = sext i8 %21 to i32
  %23 = icmp ne i32 0, %22
  br i1 %23, label %24, label %33

24:                                               ; preds = %19
  %25 = load i8*, i8** %3, align 8
  %26 = load i8, i8* %25, align 1
  %27 = sext i8 %26 to i64
  %28 = getelementptr inbounds [256 x i32], [256 x i32]* %6, i64 0, i64 %27
  %29 = load i32, i32* %28, align 4
  %30 = add nsw i32 %29, 1
  store i32 %30, i32* %28, align 4
  %31 = load i8*, i8** %3, align 8
  %32 = getelementptr inbounds i8, i8* %31, i32 1
  store i8* %32, i8** %3, align 8
  br label %19

33:                                               ; preds = %19
  %34 = getelementptr inbounds [100000 x i8], [100000 x i8]* %2, i64 0, i64 0
  store i8* %34, i8** %3, align 8
  br label %35

35:                                               ; preds = %52, %33
  %36 = load i8*, i8** %3, align 8
  %37 = load i8, i8* %36, align 1
  %38 = sext i8 %37 to i32
  %39 = icmp ne i32 0, %38
  br i1 %39, label %40, label %55

40:                                               ; preds = %35
  %41 = load i8*, i8** %3, align 8
  %42 = load i8, i8* %41, align 1
  %43 = sext i8 %42 to i64
  %44 = getelementptr inbounds [256 x i32], [256 x i32]* %6, i64 0, i64 %43
  %45 = load i32, i32* %44, align 4
  %46 = icmp eq i32 1, %45
  br i1 %46, label %47, label %52

47:                                               ; preds = %40
  %48 = load i8*, i8** %3, align 8
  %49 = load i8, i8* %48, align 1
  %50 = sext i8 %49 to i32
  %51 = call i32 (i8*, ...) @printf(i8* getelementptr inbounds ([4 x i8], [4 x i8]* @.str.1, i64 0, i64 0), i32 %50)
  br label %55

52:                                               ; preds = %40
  %53 = load i8*, i8** %3, align 8
  %54 = getelementptr inbounds i8, i8* %53, i32 1
  store i8* %54, i8** %3, align 8
  br label %35

55:                                               ; preds = %47, %35
  %56 = load i8*, i8** %3, align 8
  %57 = load i8, i8* %56, align 1
  %58 = sext i8 %57 to i32
  %59 = icmp eq i32 0, %58
  br i1 %59, label %60, label %62

60:                                               ; preds = %55
  %61 = call i32 (i8*, ...) @printf(i8* getelementptr inbounds ([4 x i8], [4 x i8]* @.str.2, i64 0, i64 0))
  br label %62

62:                                               ; preds = %60, %55
  br label %63

63:                                               ; preds = %62
  %64 = load i32, i32* %5, align 4
  %65 = add nsw i32 %64, 1
  store i32 %65, i32* %5, align 4
  br label %10

66:                                               ; preds = %10
  ret i32 0
}

declare dso_local i32 @__isoc99_scanf(i8*, ...) #1

declare dso_local i32 @gets(...) #1

; Function Attrs: argmemonly nounwind willreturn
declare void @llvm.memset.p0i8.i64(i8* nocapture writeonly, i8, i64, i1 immarg) #2

declare dso_local i32 @printf(i8*, ...) #1


!llvm.module.flags = !{!0}
!llvm.ident = !{!1}

!0 = !{i32 1, !"wchar_size", i32 4}
!1 = !{!"clang version 10.0.0-4ubuntu1 "}
